; Function Attrs: mustprogress uwtable
define void @_ZN15TCPStreamDialog26on_actionZoomInX_triggeredEv(ptr nocapture noundef nonnull readonly align 8 dereferenceable(584) %0) local_unnamed_addr #2 align 2 {
  %2 = getelementptr inbounds i8, ptr %0, i64 64
  %3 = load ptr, ptr %2, align 8
  %4 = getelementptr inbounds i8, ptr %3, i64 232
  %5 = load ptr, ptr %4, align 8
  %6 = tail call noundef ptr @_ZNK11QCustomPlot8axisRectEi(ptr noundef nonnull align 8 dereferenceable(513) %5, i32 noundef 0)
  %7 = tail call noundef double @_ZN11QCPAxisRect15rangeZoomFactorEN2Qt11OrientationE(ptr noundef nonnull align 8 dereferenceable(432) %6, i32 noundef 1)
  %8 = getelementptr inbounds i8, ptr %5, i64 40
  %9 = load ptr, ptr %8, align 8
  %10 = getelementptr inbounds i8, ptr %9, i64 304
  %.sroa.0.0.copyload.i.i = load double, ptr %10, align 8
  %.sroa.2.0..sroa_idx.i.i = getelementptr inbounds i8, ptr %9, i64 312
  %.sroa.2.0.copyload.i.i = load double, ptr %.sroa.2.0..sroa_idx.i.i, align 8
  %11 = fadd double %.sroa.0.0.copyload.i.i, %.sroa.2.0.copyload.i.i
  %12 = fmul double %11, 5.000000e-01
  tail call void @_ZN7QCPAxis10scaleRangeEdd(ptr noundef nonnull align 8 dereferenceable(472) %9, double noundef %7, double noundef %12)
  tail call void @_ZN11QCustomPlot6replotENS_15RefreshPriorityE(ptr noundef nonnull align 8 dereferenceable(513) %5, i32 noundef 2)
  ret void
}